target datalayout = "e-m:e-p270:32:32-p271:32:32-p272:64:64-i64:64-i128:128-f80:128-n8:16:32:64-S128"
target triple = "x86_64-pc-linux-gnu"

; Function Attrs: nounwind uwtable
define void @ff_gradfun_blur_line_c(ptr noundef %0, ptr noundef %1, ptr noundef %2, ptr noundef %3, i32 noundef %4, i32 noundef %5) #0 {
  %7 = alloca ptr, align 8
  %8 = alloca ptr, align 8
  %9 = alloca ptr, align 8
  %10 = alloca ptr, align 8
  %11 = alloca i32, align 4
  %12 = alloca i32, align 4
  %13 = alloca i32, align 4
  %14 = alloca i32, align 4
  %15 = alloca i32, align 4
  store ptr %0, ptr %7, align 8, !tbaa !9
  store ptr %1, ptr %8, align 8, !tbaa !9
  store ptr %2, ptr %9, align 8, !tbaa !9
  store ptr %3, ptr %10, align 8, !tbaa !4
  store i32 %4, ptr %11, align 4, !tbaa !11
  store i32 %5, ptr %12, align 4, !tbaa !11
  call void @llvm.lifetime.start.p0(i64 4, ptr %13) #8
  call void @llvm.lifetime.start.p0(i64 4, ptr %14) #8
  call void @llvm.lifetime.start.p0(i64 4, ptr %15) #8
  store i32 0, ptr %13, align 4, !tbaa !11
  br label %16

16:                                               ; preds = %85, %6
  %17 = load i32, ptr %13, align 4, !tbaa !11
  %18 = load i32, ptr %12, align 4, !tbaa !11
  %19 = icmp slt i32 %17, %18
  br i1 %19, label %20, label %88

20:                                               ; preds = %16
  %21 = load ptr, ptr %9, align 8, !tbaa !9
  %22 = load i32, ptr %13, align 4, !tbaa !11
  %23 = sext i32 %22 to i64
  %24 = getelementptr inbounds i16, ptr %21, i64 %23
  %25 = load i16, ptr %24, align 2, !tbaa !14
  %26 = zext i16 %25 to i32
  %27 = load ptr, ptr %10, align 8, !tbaa !4
  %28 = load i32, ptr %13, align 4, !tbaa !11
  %29 = mul nsw i32 2, %28
  %30 = sext i32 %29 to i64
  %31 = getelementptr inbounds i8, ptr %27, i64 %30
  %32 = load i8, ptr %31, align 1, !tbaa !13
  %33 = zext i8 %32 to i32
  %34 = add nsw i32 %26, %33
  %35 = load ptr, ptr %10, align 8, !tbaa !4
  %36 = load i32, ptr %13, align 4, !tbaa !11
  %37 = mul nsw i32 2, %36
  %38 = add nsw i32 %37, 1
  %39 = sext i32 %38 to i64
  %40 = getelementptr inbounds i8, ptr %35, i64 %39
  %41 = load i8, ptr %40, align 1, !tbaa !13
  %42 = zext i8 %41 to i32
  %43 = add nsw i32 %34, %42
  %44 = load ptr, ptr %10, align 8, !tbaa !4
  %45 = load i32, ptr %13, align 4, !tbaa !11
  %46 = mul nsw i32 2, %45
  %47 = load i32, ptr %11, align 4, !tbaa !11
  %48 = add nsw i32 %46, %47
  %49 = sext i32 %48 to i64
  %50 = getelementptr inbounds i8, ptr %44, i64 %49
  %51 = load i8, ptr %50, align 1, !tbaa !13
  %52 = zext i8 %51 to i32
  %53 = add nsw i32 %43, %52
  %54 = load ptr, ptr %10, align 8, !tbaa !4
  %55 = load i32, ptr %13, align 4, !tbaa !11
  %56 = mul nsw i32 2, %55
  %57 = add nsw i32 %56, 1
  %58 = load i32, ptr %11, align 4, !tbaa !11
  %59 = add nsw i32 %57, %58
  %60 = sext i32 %59 to i64
  %61 = getelementptr inbounds i8, ptr %54, i64 %60
  %62 = load i8, ptr %61, align 1, !tbaa !13
  %63 = zext i8 %62 to i32
  %64 = add nsw i32 %53, %63
  store i32 %64, ptr %14, align 4, !tbaa !11
  %65 = load ptr, ptr %8, align 8, !tbaa !9
  %66 = load i32, ptr %13, align 4, !tbaa !11
  %67 = sext i32 %66 to i64
  %68 = getelementptr inbounds i16, ptr %65, i64 %67
  %69 = load i16, ptr %68, align 2, !tbaa !14
  %70 = zext i16 %69 to i32
  store i32 %70, ptr %15, align 4, !tbaa !11
  %71 = load i32, ptr %14, align 4, !tbaa !11
  %72 = trunc i32 %71 to i16
  %73 = load ptr, ptr %8, align 8, !tbaa !9
  %74 = load i32, ptr %13, align 4, !tbaa !11
  %75 = sext i32 %74 to i64
  %76 = getelementptr inbounds i16, ptr %73, i64 %75
  store i16 %72, ptr %76, align 2, !tbaa !14
  %77 = load i32, ptr %14, align 4, !tbaa !11
  %78 = load i32, ptr %15, align 4, !tbaa !11
  %79 = sub nsw i32 %77, %78
  %80 = trunc i32 %79 to i16
  %81 = load ptr, ptr %7, align 8, !tbaa !9
  %82 = load i32, ptr %13, align 4, !tbaa !11
  %83 = sext i32 %82 to i64
  %84 = getelementptr inbounds i16, ptr %81, i64 %83
  store i16 %80, ptr %84, align 2, !tbaa !14
  br label %85

85:                                               ; preds = %20
  %86 = load i32, ptr %13, align 4, !tbaa !11
  %87 = add nsw i32 %86, 1
  store i32 %87, ptr %13, align 4, !tbaa !11
  br label %16, !llvm.loop !18

88:                                               ; preds = %16
  call void @llvm.lifetime.end.p0(i64 4, ptr %15) #8
  call void @llvm.lifetime.end.p0(i64 4, ptr %14) #8
  call void @llvm.lifetime.end.p0(i64 4, ptr %13) #8
  ret void
}