; Function Attrs: nofree norecurse nosync nounwind memory(argmem: readwrite) uwtable
define void @ff_gradfun_blur_line_c(ptr noundef writeonly captures(none) %0, ptr noundef captures(none) %1, ptr noundef readonly captures(none) %2, ptr noundef readonly captures(none) %3, i32 noundef %4, i32 noundef %5) #0 {
  %7 = icmp sgt i32 %5, 0
  br i1 %7, label %.lr.ph.preheader, label %._crit_edge

.lr.ph.preheader:                                 ; preds = %6
  %8 = sext i32 %4 to i64
  %wide.trip.count = zext nneg i32 %5 to i64
  %invariant.gep = getelementptr i8, ptr %3, i64 %8
  %invariant.gep25 = getelementptr i8, ptr %3, i64 %8
  br label %.lr.ph

.lr.ph:                                           ; preds = %.lr.ph.preheader, %.lr.ph
  %indvars.iv = phi i64 [ 0, %.lr.ph.preheader ], [ %indvars.iv.next, %.lr.ph ]
  %9 = getelementptr inbounds nuw i16, ptr %2, i64 %indvars.iv
  %10 = load i16, ptr %9, align 2, !tbaa !7
  %11 = shl nuw nsw i64 %indvars.iv, 1
  %12 = getelementptr inbounds nuw i8, ptr %3, i64 %11
  %13 = load i8, ptr %12, align 1, !tbaa !4
  %14 = zext i8 %13 to i16
  %15 = add i16 %10, %14
  %16 = or disjoint i64 %11, 1
  %17 = getelementptr inbounds nuw i8, ptr %3, i64 %16
  %18 = load i8, ptr %17, align 1, !tbaa !4
  %19 = zext i8 %18 to i16
  %20 = add i16 %15, %19
  %gep = getelementptr i8, ptr %invariant.gep, i64 %11
  %21 = load i8, ptr %gep, align 1, !tbaa !4
  %22 = zext i8 %21 to i16
  %23 = add i16 %20, %22
  %gep26 = getelementptr i8, ptr %invariant.gep25, i64 %16
  %24 = load i8, ptr %gep26, align 1, !tbaa !4
  %25 = zext i8 %24 to i16
  %26 = add i16 %23, %25
  %27 = getelementptr inbounds nuw i16, ptr %1, i64 %indvars.iv
  %28 = load i16, ptr %27, align 2, !tbaa !7
  store i16 %26, ptr %27, align 2, !tbaa !7
  %29 = sub i16 %26, %28
  %30 = getelementptr inbounds nuw i16, ptr %0, i64 %indvars.iv
  store i16 %29, ptr %30, align 2, !tbaa !7
  %indvars.iv.next = add nuw nsw i64 %indvars.iv, 1
  %exitcond.not = icmp eq i64 %indvars.iv.next, %wide.trip.count
  br i1 %exitcond.not, label %._crit_edge, label %.lr.ph, !llvm.loop !11

._crit_edge:                                      ; preds = %.lr.ph, %6
  ret void
}